target datalayout = "e-m:e-p270:32:32-p271:32:32-p272:64:64-i64:64-i128:128-f80:128-n8:16:32:64-S128"
target triple = "x86_64-pc-linux-gnu"

%struct._structmodulestate = type { ptr, ptr, ptr, ptr }
%struct.Py_complex = type { double, double }

@.str.57 = private unnamed_addr constant [35 x i8] c"required argument is not a complex\00", align 1

; Function Attrs: nounwind uwtable
define internal i32 @lp_float_complex(ptr noundef %0, ptr noundef %1, ptr noundef %2, ptr noundef %3) #0 {
  %5 = alloca i32, align 4
  %6 = alloca ptr, align 8
  %7 = alloca ptr, align 8
  %8 = alloca ptr, align 8
  %9 = alloca ptr, align 8
  %10 = alloca %struct.Py_complex, align 8
  %11 = alloca i32, align 4
  store ptr %0, ptr %6, align 8, !tbaa !8
  store ptr %1, ptr %7, align 8, !tbaa !43
  store ptr %2, ptr %8, align 8, !tbaa !3
  store ptr %3, ptr %9, align 8, !tbaa !49
  call void @llvm.lifetime.start.p0(i64 16, ptr %10) #8
  %12 = load ptr, ptr %8, align 8, !tbaa !3
  %13 = call { double, double } @PyComplex_AsCComplex(ptr noundef %12)
  %14 = getelementptr inbounds nuw { double, double }, ptr %10, i32 0, i32 0
  %15 = extractvalue { double, double } %13, 0
  store double %15, ptr %14, align 8
  %16 = getelementptr inbounds nuw { double, double }, ptr %10, i32 0, i32 1
  %17 = extractvalue { double, double } %13, 1
  store double %17, ptr %16, align 8
  %18 = getelementptr inbounds nuw %struct.Py_complex, ptr %10, i32 0, i32 0
  %19 = load double, ptr %18, align 8, !tbaa !101
  %20 = fcmp oeq double %19, -1.000000e+00
  br i1 %20, label %21, label %28

21:                                               ; preds = %4
  %22 = call ptr @PyErr_Occurred()
  %23 = icmp ne ptr %22, null
  br i1 %23, label %24, label %28

24:                                               ; preds = %21
  %25 = load ptr, ptr %6, align 8, !tbaa !8
  %26 = getelementptr inbounds nuw %struct._structmodulestate, ptr %25, i32 0, i32 3
  %27 = load ptr, ptr %26, align 8, !tbaa !15
  call void @PyErr_SetString(ptr noundef %27, ptr noundef @.str.57)
  store i32 -1, ptr %5, align 4
  store i32 1, ptr %11, align 4
  br label %41

28:                                               ; preds = %21, %4
  %29 = getelementptr inbounds nuw %struct.Py_complex, ptr %10, i32 0, i32 0
  %30 = load double, ptr %29, align 8, !tbaa !101
  %31 = load ptr, ptr %7, align 8, !tbaa !43
  %32 = call i32 @PyFloat_Pack4(double noundef %30, ptr noundef %31, i32 noundef 1)
  %33 = icmp ne i32 %32, 0
  br i1 %33, label %34, label %35

34:                                               ; preds = %28
  store i32 -1, ptr %5, align 4
  store i32 1, ptr %11, align 4
  br label %41

35:                                               ; preds = %28
  %36 = getelementptr inbounds nuw %struct.Py_complex, ptr %10, i32 0, i32 1
  %37 = load double, ptr %36, align 8, !tbaa !103
  %38 = load ptr, ptr %7, align 8, !tbaa !43
  %39 = getelementptr i8, ptr %38, i64 4
  %40 = call i32 @PyFloat_Pack4(double noundef %37, ptr noundef %39, i32 noundef 1)
  store i32 %40, ptr %5, align 4
  store i32 1, ptr %11, align 4
  br label %41

41:                                               ; preds = %35, %34, %24
  call void @llvm.lifetime.end.p0(i64 16, ptr %10) #8
  %42 = load i32, ptr %5, align 4
  ret i32 %42
}